target datalayout = "e-m:e-p270:32:32-p271:32:32-p272:64:64-i64:64-i128:128-f80:128-n8:16:32:64-S128"
target triple = "x86_64-pc-linux-gnu"

%struct._GLFWlibrary = type { i32, %struct.GLFWallocator, %struct._GLFWplatform, %struct.anon, ptr, ptr, ptr, ptr, i32, i32, [16 x %struct._GLFWjoystick], ptr, i32, %struct._GLFWtls, %struct._GLFWtls, %struct._GLFWmutex, %struct.anon.8, %struct.anon.9, %struct.anon.10, %struct.anon.11, %struct.anon.12, %struct._GLFWlibraryWayland, %struct._GLFWlibraryX11, %struct._GLFWlibraryNull, %struct._GLFWlibraryGLX, %struct._GLFWlibraryLinux }
%struct.GLFWallocator = type { ptr, ptr, ptr, ptr }
%struct._GLFWplatform = type { i32, ptr, ptr, ptr, ptr, ptr, ptr, ptr, ptr, ptr, ptr, ptr, ptr, ptr, ptr, ptr, ptr, ptr, ptr, ptr, ptr, ptr, ptr, ptr, ptr, ptr, ptr, ptr, ptr, ptr, ptr, ptr, ptr, ptr, ptr, ptr, ptr, ptr, ptr, ptr, ptr, ptr, ptr, ptr, ptr, ptr, ptr, ptr, ptr, ptr, ptr, ptr, ptr, ptr, ptr, ptr, ptr, ptr, ptr, ptr, ptr, ptr, ptr, ptr, ptr, ptr, ptr, ptr, ptr, ptr, ptr, ptr }
%struct.anon = type { %struct._GLFWinitconfig, %struct._GLFWfbconfig, %struct._GLFWwndconfig, %struct._GLFWctxconfig, i32 }
%struct._GLFWinitconfig = type { i32, i32, i32, ptr, %struct.anon.0, %struct.anon.1, %struct.anon.2 }
%struct.anon.0 = type { i32, i32 }
%struct.anon.1 = type { i32 }
%struct.anon.2 = type { i32 }
%struct._GLFWfbconfig = type { i32, i32, i32, i32, i32, i32, i32, i32, i32, i32, i32, i32, i32, i32, i32, i32, i64 }
%struct._GLFWwndconfig = type { i32, i32, i32, i32, ptr, i32, i32, i32, i32, i32, i32, i32, i32, i32, i32, i32, i32, %struct.anon.3, %struct.anon.4, %struct.anon.5, %struct.anon.6 }
%struct.anon.3 = type { [256 x i8] }
%struct.anon.4 = type { [256 x i8], [256 x i8] }
%struct.anon.5 = type { i32, i32 }
%struct.anon.6 = type { [256 x i8] }
%struct._GLFWctxconfig = type { i32, i32, i32, i32, i32, i32, i32, i32, i32, i32, ptr, %struct.anon.7 }
%struct.anon.7 = type { i32 }
%struct._GLFWjoystick = type { i32, i32, ptr, i32, ptr, i32, ptr, i32, [128 x i8], ptr, [33 x i8], ptr, %struct._GLFWjoystickLinux }
%struct._GLFWjoystickLinux = type { i32, [4096 x i8], [512 x i32], [64 x i32], [64 x %struct.input_absinfo], [4 x [2 x i32]] }
%struct.input_absinfo = type { i32, i32, i32, i32, i32, i32 }
%struct._GLFWtls = type { %struct._GLFWtlsPOSIX }
%struct._GLFWtlsPOSIX = type { i32, i32 }
%struct._GLFWmutex = type { %struct._GLFWmutexPOSIX }
%struct._GLFWmutexPOSIX = type { i32, %union.pthread_mutex_t }
%union.pthread_mutex_t = type { %struct.__pthread_mutex_s }
%struct.__pthread_mutex_s = type { i32, i32, i32, i32, i32, i16, i16, %struct.__pthread_internal_list }
%struct.__pthread_internal_list = type { ptr, ptr }
%struct.anon.8 = type { i64, %struct._GLFWtimerPOSIX }
%struct._GLFWtimerPOSIX = type { i32, i64 }
%struct.anon.9 = type { i32, ptr, i32, i32, i32, i32, i32, i32, i32, i32, i32, i32, i32, i32, i32, i32, i32, i32, i32, i32, ptr, ptr, ptr, ptr, ptr, ptr, ptr, ptr, ptr, ptr, ptr, ptr, ptr, ptr, ptr, ptr, ptr, ptr, ptr }
%struct.anon.10 = type { ptr, ptr, ptr, ptr, ptr, ptr, ptr, ptr }
%struct.anon.11 = type { i32, ptr, [2 x ptr], ptr, i32, i32, i32, i32, i32, i32, i32 }
%struct.anon.12 = type { ptr, ptr }
%struct._GLFWlibraryWayland = type { ptr, ptr, ptr, ptr, ptr, ptr, ptr, ptr, ptr, ptr, ptr, ptr, ptr, ptr, ptr, ptr, ptr, ptr, ptr, i32, ptr, ptr, ptr, ptr, i32, ptr, ptr, ptr, ptr, ptr, i32, i32, i32, i32, i32, i32, i32, ptr, [256 x i16], [349 x i16], [349 x [5 x i8]], %struct.anon.13, ptr, ptr, %struct.anon.14, %struct.anon.15, %struct.anon.16, %struct.anon.17 }
%struct.anon.13 = type { ptr, ptr, ptr, ptr, ptr, i32, i32, i32, i32, i32, i32, i32, ptr, ptr, ptr, ptr, ptr, ptr, ptr, ptr, ptr, ptr, ptr, ptr, ptr, ptr, ptr, ptr, ptr, ptr, ptr, ptr }
%struct.anon.14 = type { ptr, ptr, ptr, ptr, ptr, ptr, ptr, ptr, ptr, ptr, ptr, ptr, ptr, ptr, ptr, ptr, ptr, ptr, ptr, ptr }
%struct.anon.15 = type { ptr, ptr, ptr, ptr, ptr }
%struct.anon.16 = type { ptr, ptr, ptr, ptr }
%struct.anon.17 = type { ptr, ptr, ptr, i32, ptr, ptr, ptr, ptr, ptr, ptr, ptr, ptr, ptr, ptr, ptr, ptr, ptr, ptr, ptr, ptr, ptr, ptr, ptr, ptr, ptr, ptr, ptr, ptr, ptr }
%struct._GLFWlibraryX11 = type { ptr, i32, i64, float, float, i64, i64, i32, ptr, ptr, i32, ptr, ptr, [349 x [5 x i8]], [256 x i16], [349 x i16], double, double, ptr, [2 x i32], i64, i64, i64, i64, i64, i64, i64, i64, i64, i64, i64, i64, i64, i64, i64, i64, i64, i64, i64, i64, i64, i64, i64, i64, i64, i64, i64, i64, i64, i64, i64, i64, i64, i64, i64, i64, i64, i64, i64, i64, i64, i64, i64, i64, i64, i64, i64, i64, i64, i64, %struct.anon.18, %struct.anon.19, %struct.anon.20, %struct.anon.21, %struct.anon.22, %struct.anon.23, %struct.anon.24, %struct.anon.25, %struct.anon.26, %struct.anon.27, %struct.anon.28, %struct.anon.29, %struct.anon.30 }
%struct.anon.18 = type { ptr, i32, ptr, ptr, ptr, ptr, ptr, ptr, ptr, ptr, ptr, ptr, ptr, ptr, ptr, ptr, ptr, ptr, ptr, ptr, ptr, ptr, ptr, ptr, ptr, ptr, ptr, ptr, ptr, ptr, ptr, ptr, ptr, ptr, ptr, ptr, ptr, ptr, ptr, ptr, ptr, ptr, ptr, ptr, ptr, ptr, ptr, ptr, ptr, ptr, ptr, ptr, ptr, ptr, ptr, ptr, ptr, ptr, ptr, ptr, ptr, ptr, ptr, ptr, ptr, ptr, ptr, ptr, ptr, ptr, ptr, ptr, ptr, ptr, ptr, ptr, ptr, ptr, ptr, ptr, ptr, ptr, ptr, ptr, ptr, ptr, ptr, ptr }
%struct.anon.19 = type { ptr, ptr, ptr, ptr }
%struct.anon.20 = type { i32, ptr, i32, i32, i32, i32, i32, i32, ptr, ptr, ptr, ptr, ptr, ptr, ptr, ptr, ptr, ptr, ptr, ptr, ptr, ptr, ptr, ptr, ptr }
%struct.anon.21 = type { i32, i32, i32, i32, i32, i32, i32, i32, ptr, ptr, ptr, ptr, ptr, ptr, ptr, ptr, ptr }
%struct.anon.22 = type { i32, i32, i32, i32, i32 }
%struct.anon.23 = type { i32, i64, i64 }
%struct.anon.24 = type { ptr, ptr, ptr, ptr, ptr, ptr, ptr }
%struct.anon.25 = type { i32, ptr, i32, i32, ptr, ptr, ptr }
%struct.anon.26 = type { ptr, ptr }
%struct.anon.27 = type { i32, ptr, i32, i32, ptr, ptr, ptr, ptr }
%struct.anon.28 = type { i32, ptr, i32, i32, i32, i32, i32, ptr, ptr }
%struct.anon.29 = type { i32, ptr, i32, i32, i32, i32, ptr, ptr, ptr }
%struct.anon.30 = type { i32, ptr, i32, i32, i32, i32, ptr, ptr, ptr, ptr }
%struct._GLFWlibraryNull = type { i32, i32, ptr, ptr, [121 x i16], [349 x i8] }
%struct._GLFWlibraryGLX = type { i32, i32, i32, i32, ptr, ptr, ptr, ptr, ptr, ptr, ptr, ptr, ptr, ptr, ptr, ptr, ptr, ptr, ptr, ptr, ptr, ptr, ptr, ptr, i32, i32, i32, i32, i32, i32, i32, i32, i32, i32, i32, i32 }
%struct._GLFWlibraryLinux = type { i32, i32, %struct.re_pattern_buffer, i32, i32 }
%struct.re_pattern_buffer = type { ptr, i64, i64, i64, ptr, ptr, i64, i8 }

@_glfw = external global %struct._GLFWlibrary, align 8
@.str.7 = private unnamed_addr constant [20 x i8] c"Invalid scancode %i\00", align 1

; Function Attrs: nounwind uwtable
define hidden ptr @_glfwGetScancodeNameX11(i32 noundef %0) #0 {
  %2 = alloca ptr, align 8
  %3 = alloca i32, align 4
  %4 = alloca i32, align 4
  %5 = alloca i32, align 4
  %6 = alloca i64, align 8
  %7 = alloca i32, align 4
  %8 = alloca i64, align 8
  store i32 %0, ptr %3, align 4, !tbaa !194
  %9 = load i32, ptr getelementptr inbounds nuw (%struct._GLFWlibraryX11, ptr getelementptr inbounds nuw (%struct._GLFWlibrary, ptr @_glfw, i32 0, i32 22), i32 0, i32 73), align 8, !tbaa !383
  %10 = icmp ne i32 %9, 0
  br i1 %10, label %12, label %11

11:                                               ; preds = %1
  store ptr null, ptr %2, align 8
  br label %70

12:                                               ; preds = %1
  %13 = load i32, ptr %3, align 4, !tbaa !194
  %14 = icmp slt i32 %13, 0
  br i1 %14, label %18, label %15

15:                                               ; preds = %12
  %16 = load i32, ptr %3, align 4, !tbaa !194
  %17 = icmp sgt i32 %16, 255
  br i1 %17, label %18, label %20

18:                                               ; preds = %15, %12
  %19 = load i32, ptr %3, align 4, !tbaa !194
  call void (i32, ptr, ...) @_glfwInputError(i32 noundef 65540, ptr noundef @.str.7, i32 noundef %19)
  store ptr null, ptr %2, align 8
  br label %70

20:                                               ; preds = %15
  call void @llvm.lifetime.start.p0(i64 4, ptr %4) #8
  %21 = load i32, ptr %3, align 4, !tbaa !194
  %22 = sext i32 %21 to i64
  %23 = getelementptr inbounds [256 x i16], ptr getelementptr inbounds nuw (%struct._GLFWlibraryX11, ptr getelementptr inbounds nuw (%struct._GLFWlibrary, ptr @_glfw, i32 0, i32 22), i32 0, i32 14), i64 0, i64 %22
  %24 = load i16, ptr %23, align 2, !tbaa !440
  %25 = sext i16 %24 to i32
  store i32 %25, ptr %4, align 4, !tbaa !194
  %26 = load i32, ptr %4, align 4, !tbaa !194
  %27 = icmp eq i32 %26, -1
  br i1 %27, label %28, label %29

28:                                               ; preds = %20
  store ptr null, ptr %2, align 8
  store i32 1, ptr %5, align 4
  br label %69

29:                                               ; preds = %20
  call void @llvm.lifetime.start.p0(i64 8, ptr %6) #8
  %30 = load ptr, ptr getelementptr inbounds nuw (%struct.anon.21, ptr getelementptr inbounds nuw (%struct._GLFWlibraryX11, ptr getelementptr inbounds nuw (%struct._GLFWlibrary, ptr @_glfw, i32 0, i32 22), i32 0, i32 73), i32 0, i32 13), align 8, !tbaa !441
  %31 = load ptr, ptr getelementptr inbounds nuw (%struct._GLFWlibrary, ptr @_glfw, i32 0, i32 22), align 8, !tbaa !96
  %32 = load i32, ptr %3, align 4, !tbaa !194
  %33 = trunc i32 %32 to i8
  %34 = load i32, ptr getelementptr inbounds nuw (%struct.anon.21, ptr getelementptr inbounds nuw (%struct._GLFWlibraryX11, ptr getelementptr inbounds nuw (%struct._GLFWlibrary, ptr @_glfw, i32 0, i32 22), i32 0, i32 73), i32 0, i32 7), align 4, !tbaa !385
  %35 = call i64 %30(ptr noundef %31, i8 noundef zeroext %33, i32 noundef %34, i32 noundef 0)
  store i64 %35, ptr %6, align 8, !tbaa !3
  %36 = load i64, ptr %6, align 8, !tbaa !3
  %37 = icmp eq i64 %36, 0
  br i1 %37, label %38, label %39

38:                                               ; preds = %29
  store ptr null, ptr %2, align 8
  store i32 1, ptr %5, align 4
  br label %68

39:                                               ; preds = %29
  call void @llvm.lifetime.start.p0(i64 4, ptr %7) #8
  %40 = load i64, ptr %6, align 8, !tbaa !3
  %41 = trunc i64 %40 to i32
  %42 = call i32 @_glfwKeySym2Unicode(i32 noundef %41)
  store i32 %42, ptr %7, align 4, !tbaa !194
  %43 = load i32, ptr %7, align 4, !tbaa !194
  %44 = icmp eq i32 %43, -1
  br i1 %44, label %45, label %46

45:                                               ; preds = %39
  store ptr null, ptr %2, align 8
  store i32 1, ptr %5, align 4
  br label %67

46:                                               ; preds = %39
  call void @llvm.lifetime.start.p0(i64 8, ptr %8) #8
  %47 = load i32, ptr %4, align 4, !tbaa !194
  %48 = sext i32 %47 to i64
  %49 = getelementptr inbounds [349 x [5 x i8]], ptr getelementptr inbounds nuw (%struct._GLFWlibraryX11, ptr getelementptr inbounds nuw (%struct._GLFWlibrary, ptr @_glfw, i32 0, i32 22), i32 0, i32 13), i64 0, i64 %48
  %50 = getelementptr inbounds [5 x i8], ptr %49, i64 0, i64 0
  %51 = load i32, ptr %7, align 4, !tbaa !194
  %52 = call i64 @_glfwEncodeUTF8(ptr noundef %50, i32 noundef %51)
  store i64 %52, ptr %8, align 8, !tbaa !3
  %53 = load i64, ptr %8, align 8, !tbaa !3
  %54 = icmp eq i64 %53, 0
  br i1 %54, label %55, label %56

55:                                               ; preds = %46
  store ptr null, ptr %2, align 8
  store i32 1, ptr %5, align 4
  br label %66

56:                                               ; preds = %46
  %57 = load i32, ptr %4, align 4, !tbaa !194
  %58 = sext i32 %57 to i64
  %59 = getelementptr inbounds [349 x [5 x i8]], ptr getelementptr inbounds nuw (%struct._GLFWlibraryX11, ptr getelementptr inbounds nuw (%struct._GLFWlibrary, ptr @_glfw, i32 0, i32 22), i32 0, i32 13), i64 0, i64 %58
  %60 = load i64, ptr %8, align 8, !tbaa !3
  %61 = getelementptr inbounds nuw [5 x i8], ptr %59, i64 0, i64 %60
  store i8 0, ptr %61, align 1, !tbaa !109
  %62 = load i32, ptr %4, align 4, !tbaa !194
  %63 = sext i32 %62 to i64
  %64 = getelementptr inbounds [349 x [5 x i8]], ptr getelementptr inbounds nuw (%struct._GLFWlibraryX11, ptr getelementptr inbounds nuw (%struct._GLFWlibrary, ptr @_glfw, i32 0, i32 22), i32 0, i32 13), i64 0, i64 %63
  %65 = getelementptr inbounds [5 x i8], ptr %64, i64 0, i64 0
  store ptr %65, ptr %2, align 8
  store i32 1, ptr %5, align 4
  br label %66

66:                                               ; preds = %56, %55
  call void @llvm.lifetime.end.p0(i64 8, ptr %8) #8
  br label %67

67:                                               ; preds = %66, %45
  call void @llvm.lifetime.end.p0(i64 4, ptr %7) #8
  br label %68

68:                                               ; preds = %67, %38
  call void @llvm.lifetime.end.p0(i64 8, ptr %6) #8
  br label %69

69:                                               ; preds = %68, %28
  call void @llvm.lifetime.end.p0(i64 4, ptr %4) #8
  br label %70

70:                                               ; preds = %69, %18, %11
  %71 = load ptr, ptr %2, align 8
  ret ptr %71
}