; Function Attrs: nounwind uwtable
define hidden noundef ptr @_glfwGetScancodeNameX11(i32 noundef %0) local_unnamed_addr #0 {
  %2 = load i32, ptr getelementptr inbounds nuw (i8, ptr @_glfw, i64 142240), align 8, !tbaa !369
  %.not = icmp eq i32 %2, 0
  br i1 %.not, label %28, label %3

3:                                                ; preds = %1
  %or.cond = icmp ugt i32 %0, 255
  br i1 %or.cond, label %4, label %5

4:                                                ; preds = %3
  tail call void (i32, ptr, ...) @_glfwInputError(i32 noundef 65540, ptr noundef nonnull @.str.7, i32 noundef %0) #17
  br label %28

5:                                                ; preds = %3
  %6 = zext nneg i32 %0 to i64
  %7 = getelementptr inbounds nuw [256 x i16], ptr getelementptr inbounds nuw (i8, ptr @_glfw, i64 139682), i64 0, i64 %6
  %8 = load i16, ptr %7, align 2, !tbaa !384
  %9 = icmp eq i16 %8, -1
  br i1 %9, label %28, label %10

10:                                               ; preds = %5
  %11 = load ptr, ptr getelementptr inbounds nuw (i8, ptr @_glfw, i64 142312), align 8, !tbaa !417
  %12 = load ptr, ptr getelementptr inbounds nuw (i8, ptr @_glfw, i64 137840), align 8, !tbaa !93
  %13 = trunc nuw i32 %0 to i8
  %14 = load i32, ptr getelementptr inbounds nuw (i8, ptr @_glfw, i64 142268), align 4, !tbaa !370
  %15 = tail call i64 %11(ptr noundef %12, i8 noundef zeroext %13, i32 noundef %14, i32 noundef 0) #17
  %16 = icmp eq i64 %15, 0
  br i1 %16, label %28, label %17

17:                                               ; preds = %10
  %18 = trunc i64 %15 to i32
  %19 = tail call i32 @_glfwKeySym2Unicode(i32 noundef %18) #17
  %20 = icmp eq i32 %19, -1
  br i1 %20, label %28, label %21

21:                                               ; preds = %17
  %22 = sext i16 %8 to i64
  %23 = getelementptr inbounds [349 x [5 x i8]], ptr getelementptr inbounds nuw (i8, ptr @_glfw, i64 137936), i64 0, i64 %22
  %24 = tail call i64 @_glfwEncodeUTF8(ptr noundef nonnull %23, i32 noundef %19) #17
  %25 = icmp eq i64 %24, 0
  br i1 %25, label %28, label %26

26:                                               ; preds = %21
  %27 = getelementptr inbounds [349 x [5 x i8]], ptr getelementptr inbounds nuw (i8, ptr @_glfw, i64 137936), i64 0, i64 %22, i64 %24
  store i8 0, ptr %27, align 1, !tbaa !106
  br label %28

28:                                               ; preds = %5, %17, %21, %26, %10, %1, %4
  %.0 = phi ptr [ null, %4 ], [ null, %1 ], [ null, %5 ], [ null, %10 ], [ null, %17 ], [ %23, %26 ], [ null, %21 ]
  ret ptr %.0
}